; Function Attrs: mustprogress uwtable
define void @_ZN7jsonnet8internal12CompilerPass6paramsERSt6vectorINS0_13FodderElementESaIS3_EERS2_INS0_8ArgParamESaIS7_EES6_(ptr noundef nonnull align 8 dereferenceable(16) %0, ptr noundef nonnull align 8 dereferenceable(24) %1, ptr noundef nonnull readonly align 8 captures(none) dereferenceable(24) %2, ptr noundef nonnull align 8 dereferenceable(24) %3) unnamed_addr #4 align 2 {
  %5 = load ptr, ptr %0, align 8, !tbaa !17
  %6 = getelementptr inbounds nuw i8, ptr %5, i64 8
  %7 = load ptr, ptr %6, align 8
  tail call void %7(ptr noundef nonnull align 8 dereferenceable(16) %0, ptr noundef nonnull align 8 dereferenceable(24) %1)
  %8 = load ptr, ptr %2, align 8, !tbaa !30
  %9 = getelementptr inbounds nuw i8, ptr %2, i64 8
  %10 = load ptr, ptr %9, align 8, !tbaa !30
  %.not1415 = icmp eq ptr %8, %10
  br i1 %.not1415, label %._crit_edge, label %.lr.ph

._crit_edge:                                      ; preds = %27, %4
  %11 = load ptr, ptr %0, align 8, !tbaa !17
  %12 = getelementptr inbounds nuw i8, ptr %11, i64 8
  %13 = load ptr, ptr %12, align 8
  tail call void %13(ptr noundef nonnull align 8 dereferenceable(16) %0, ptr noundef nonnull align 8 dereferenceable(24) %3)
  ret void

.lr.ph:                                           ; preds = %4, %27
  %.sroa.011.016 = phi ptr [ %32, %27 ], [ %8, %4 ]
  %14 = load ptr, ptr %0, align 8, !tbaa !17
  %15 = getelementptr inbounds nuw i8, ptr %14, i64 8
  %16 = load ptr, ptr %15, align 8
  tail call void %16(ptr noundef nonnull align 8 dereferenceable(16) %0, ptr noundef nonnull align 8 dereferenceable(24) %.sroa.011.016)
  %17 = getelementptr inbounds nuw i8, ptr %.sroa.011.016, i64 56
  %18 = load ptr, ptr %17, align 8, !tbaa !32
  %.not = icmp eq ptr %18, null
  br i1 %.not, label %27, label %19

19:                                               ; preds = %.lr.ph
  %20 = getelementptr inbounds nuw i8, ptr %.sroa.011.016, i64 32
  %21 = load ptr, ptr %0, align 8, !tbaa !17
  %22 = getelementptr inbounds nuw i8, ptr %21, i64 8
  %23 = load ptr, ptr %22, align 8
  tail call void %23(ptr noundef nonnull align 8 dereferenceable(16) %0, ptr noundef nonnull align 8 dereferenceable(24) %20)
  %24 = load ptr, ptr %0, align 8, !tbaa !17
  %25 = getelementptr inbounds nuw i8, ptr %24, i64 48
  %26 = load ptr, ptr %25, align 8
  tail call void %26(ptr noundef nonnull align 8 dereferenceable(16) %0, ptr noundef nonnull align 8 dereferenceable(8) %17)
  br label %27

27:                                               ; preds = %19, %.lr.ph
  %28 = getelementptr inbounds nuw i8, ptr %.sroa.011.016, i64 64
  %29 = load ptr, ptr %0, align 8, !tbaa !17
  %30 = getelementptr inbounds nuw i8, ptr %29, i64 8
  %31 = load ptr, ptr %30, align 8
  tail call void %31(ptr noundef nonnull align 8 dereferenceable(16) %0, ptr noundef nonnull align 8 dereferenceable(24) %28)
  %32 = getelementptr inbounds nuw i8, ptr %.sroa.011.016, i64 88
  %.not14 = icmp eq ptr %32, %10
  br i1 %.not14, label %._crit_edge, label %.lr.ph
}